target datalayout = "e-m:e-p270:32:32-p271:32:32-p272:64:64-i64:64-i128:128-f80:128-n8:16:32:64-S128"
target triple = "x86_64-pc-linux-gnu"

%struct.CbsP_Par_t_ = type { i32, i32, i32, i32, i32, i32, i32, i32, i32, i32, i32, i32, i32, i32, i32, i32, i32, i32, i32, i32, i32, i32, i32, i32, i64, i64, i64, i64, i64, i64, i64, i64, i64, i32, i32, i32 }
%struct.CbsP_Man_t_ = type { %struct.CbsP_Par_t_, ptr, %struct.CbsP_Que_t_, %struct.CbsP_Que_t_, %struct.CbsP_Que_t_, ptr, ptr, ptr, ptr, ptr, i32, i32, i32, i32, i32, i32, i32, i64, i64, i64, i64 }
%struct.CbsP_Que_t_ = type { i32, i32, i32, ptr }
%struct.Vec_Int_t_ = type { i32, i32, ptr }
%struct.Vec_Ptr_t_ = type { i32, i32, ptr }

; Function Attrs: inlinehint nounwind uwtable
define internal void @Vec_PtrFree(ptr noundef %0) #6 {
  %2 = alloca ptr, align 8
  store ptr %0, ptr %2, align 8, !tbaa !71
  %3 = load ptr, ptr %2, align 8, !tbaa !71
  %4 = getelementptr inbounds nuw %struct.Vec_Ptr_t_, ptr %3, i32 0, i32 2
  %5 = load ptr, ptr %4, align 8, !tbaa !75
  %6 = icmp ne ptr %5, null
  br i1 %6, label %7, label %13

7:                                                ; preds = %1
  %8 = load ptr, ptr %2, align 8, !tbaa !71
  %9 = getelementptr inbounds nuw %struct.Vec_Ptr_t_, ptr %8, i32 0, i32 2
  %10 = load ptr, ptr %9, align 8, !tbaa !75
  call void @free(ptr noundef %10) #11
  %11 = load ptr, ptr %2, align 8, !tbaa !71
  %12 = getelementptr inbounds nuw %struct.Vec_Ptr_t_, ptr %11, i32 0, i32 2
  store ptr null, ptr %12, align 8, !tbaa !75
  br label %14

13:                                               ; preds = %1
  br label %14

14:                                               ; preds = %13, %7
  %15 = load ptr, ptr %2, align 8, !tbaa !71
  %16 = icmp ne ptr %15, null
  br i1 %16, label %17, label %19

17:                                               ; preds = %14
  %18 = load ptr, ptr %2, align 8, !tbaa !71
  call void @free(ptr noundef %18) #11
  store ptr null, ptr %2, align 8, !tbaa !71
  br label %20

19:                                               ; preds = %14
  br label %20

20:                                               ; preds = %19, %17
  ret void
}

; Function Attrs: inlinehint nounwind uwtable
define internal void @Vec_IntFree(ptr noundef %0) #6 {
  %2 = alloca ptr, align 8
  store ptr %0, ptr %2, align 8, !tbaa !65
  %3 = load ptr, ptr %2, align 8, !tbaa !65
  %4 = getelementptr inbounds nuw %struct.Vec_Int_t_, ptr %3, i32 0, i32 2
  %5 = load ptr, ptr %4, align 8, !tbaa !70
  %6 = icmp ne ptr %5, null
  br i1 %6, label %7, label %13

7:                                                ; preds = %1
  %8 = load ptr, ptr %2, align 8, !tbaa !65
  %9 = getelementptr inbounds nuw %struct.Vec_Int_t_, ptr %8, i32 0, i32 2
  %10 = load ptr, ptr %9, align 8, !tbaa !70
  call void @free(ptr noundef %10) #11
  %11 = load ptr, ptr %2, align 8, !tbaa !65
  %12 = getelementptr inbounds nuw %struct.Vec_Int_t_, ptr %11, i32 0, i32 2
  store ptr null, ptr %12, align 8, !tbaa !70
  br label %14

13:                                               ; preds = %1
  br label %14

14:                                               ; preds = %13, %7
  %15 = load ptr, ptr %2, align 8, !tbaa !65
  %16 = icmp ne ptr %15, null
  br i1 %16, label %17, label %19

17:                                               ; preds = %14
  %18 = load ptr, ptr %2, align 8, !tbaa !65
  call void @free(ptr noundef %18) #11
  store ptr null, ptr %2, align 8, !tbaa !65
  br label %20

19:                                               ; preds = %14
  br label %20

20:                                               ; preds = %19, %17
  ret void
}

; Function Attrs: nounwind uwtable
define void @CbsP_ManStop(ptr noundef %0) #0 {
  %2 = alloca ptr, align 8
  store ptr %0, ptr %2, align 8, !tbaa !36
  %3 = load ptr, ptr %2, align 8, !tbaa !36
  %4 = getelementptr inbounds nuw %struct.CbsP_Man_t_, ptr %3, i32 0, i32 6
  %5 = load ptr, ptr %4, align 8, !tbaa !61
  call void @Vec_IntFree(ptr noundef %5)
  %6 = load ptr, ptr %2, align 8, !tbaa !36
  %7 = getelementptr inbounds nuw %struct.CbsP_Man_t_, ptr %6, i32 0, i32 8
  %8 = load ptr, ptr %7, align 8, !tbaa !60
  call void @Vec_IntFree(ptr noundef %8)
  %9 = load ptr, ptr %2, align 8, !tbaa !36
  %10 = getelementptr inbounds nuw %struct.CbsP_Man_t_, ptr %9, i32 0, i32 9
  %11 = load ptr, ptr %10, align 8, !tbaa !62
  call void @Vec_PtrFree(ptr noundef %11)
  %12 = load ptr, ptr %2, align 8, !tbaa !36
  %13 = getelementptr inbounds nuw %struct.CbsP_Man_t_, ptr %12, i32 0, i32 7
  %14 = load ptr, ptr %13, align 8, !tbaa !64
  call void @Vec_IntFree(ptr noundef %14)
  %15 = load ptr, ptr %2, align 8, !tbaa !36
  %16 = getelementptr inbounds nuw %struct.CbsP_Man_t_, ptr %15, i32 0, i32 4
  %17 = getelementptr inbounds nuw %struct.CbsP_Que_t_, ptr %16, i32 0, i32 3
  %18 = load ptr, ptr %17, align 8, !tbaa !57
  %19 = icmp ne ptr %18, null
  br i1 %19, label %20, label %28

20:                                               ; preds = %1
  %21 = load ptr, ptr %2, align 8, !tbaa !36
  %22 = getelementptr inbounds nuw %struct.CbsP_Man_t_, ptr %21, i32 0, i32 4
  %23 = getelementptr inbounds nuw %struct.CbsP_Que_t_, ptr %22, i32 0, i32 3
  %24 = load ptr, ptr %23, align 8, !tbaa !57
  call void @free(ptr noundef %24) #11
  %25 = load ptr, ptr %2, align 8, !tbaa !36
  %26 = getelementptr inbounds nuw %struct.CbsP_Man_t_, ptr %25, i32 0, i32 4
  %27 = getelementptr inbounds nuw %struct.CbsP_Que_t_, ptr %26, i32 0, i32 3
  store ptr null, ptr %27, align 8, !tbaa !57
  br label %29

28:                                               ; preds = %1
  br label %29

29:                                               ; preds = %28, %20
  %30 = load ptr, ptr %2, align 8, !tbaa !36
  %31 = getelementptr inbounds nuw %struct.CbsP_Man_t_, ptr %30, i32 0, i32 2
  %32 = getelementptr inbounds nuw %struct.CbsP_Que_t_, ptr %31, i32 0, i32 3
  %33 = load ptr, ptr %32, align 8, !tbaa !55
  %34 = icmp ne ptr %33, null
  br i1 %34, label %35, label %43

35:                                               ; preds = %29
  %36 = load ptr, ptr %2, align 8, !tbaa !36
  %37 = getelementptr inbounds nuw %struct.CbsP_Man_t_, ptr %36, i32 0, i32 2
  %38 = getelementptr inbounds nuw %struct.CbsP_Que_t_, ptr %37, i32 0, i32 3
  %39 = load ptr, ptr %38, align 8, !tbaa !55
  call void @free(ptr noundef %39) #11
  %40 = load ptr, ptr %2, align 8, !tbaa !36
  %41 = getelementptr inbounds nuw %struct.CbsP_Man_t_, ptr %40, i32 0, i32 2
  %42 = getelementptr inbounds nuw %struct.CbsP_Que_t_, ptr %41, i32 0, i32 3
  store ptr null, ptr %42, align 8, !tbaa !55
  br label %44

43:                                               ; preds = %29
  br label %44

44:                                               ; preds = %43, %35
  %45 = load ptr, ptr %2, align 8, !tbaa !36
  %46 = getelementptr inbounds nuw %struct.CbsP_Man_t_, ptr %45, i32 0, i32 3
  %47 = getelementptr inbounds nuw %struct.CbsP_Que_t_, ptr %46, i32 0, i32 3
  %48 = load ptr, ptr %47, align 8, !tbaa !56
  %49 = icmp ne ptr %48, null
  br i1 %49, label %50, label %58

50:                                               ; preds = %44
  %51 = load ptr, ptr %2, align 8, !tbaa !36
  %52 = getelementptr inbounds nuw %struct.CbsP_Man_t_, ptr %51, i32 0, i32 3
  %53 = getelementptr inbounds nuw %struct.CbsP_Que_t_, ptr %52, i32 0, i32 3
  %54 = load ptr, ptr %53, align 8, !tbaa !56
  call void @free(ptr noundef %54) #11
  %55 = load ptr, ptr %2, align 8, !tbaa !36
  %56 = getelementptr inbounds nuw %struct.CbsP_Man_t_, ptr %55, i32 0, i32 3
  %57 = getelementptr inbounds nuw %struct.CbsP_Que_t_, ptr %56, i32 0, i32 3
  store ptr null, ptr %57, align 8, !tbaa !56
  br label %59

58:                                               ; preds = %44
  br label %59

59:                                               ; preds = %58, %50
  %60 = load ptr, ptr %2, align 8, !tbaa !36
  %61 = icmp ne ptr %60, null
  br i1 %61, label %62, label %64

62:                                               ; preds = %59
  %63 = load ptr, ptr %2, align 8, !tbaa !36
  call void @free(ptr noundef %63) #11
  store ptr null, ptr %2, align 8, !tbaa !36
  br label %65

64:                                               ; preds = %59
  br label %65

65:                                               ; preds = %64, %62
  ret void
}