; Function Attrs: mustprogress nounwind willreturn uwtable
define void @CbsP_ManStop(ptr noundef captures(none) %0) local_unnamed_addr #4 {
  %2 = getelementptr inbounds nuw i8, ptr %0, i64 272
  %3 = load ptr, ptr %2, align 8, !tbaa !58
  %4 = getelementptr inbounds nuw i8, ptr %3, i64 8
  %5 = load ptr, ptr %4, align 8, !tbaa !56
  %.not.i = icmp eq ptr %5, null
  br i1 %.not.i, label %Vec_IntFree.exit, label %6

6:                                                ; preds = %1
  tail call void @free(ptr noundef nonnull %5) #26
  br label %Vec_IntFree.exit

Vec_IntFree.exit:                                 ; preds = %1, %6
  tail call void @free(ptr noundef nonnull %3) #26
  %7 = getelementptr inbounds nuw i8, ptr %0, i64 288
  %8 = load ptr, ptr %7, align 8, !tbaa !57
  %9 = getelementptr inbounds nuw i8, ptr %8, i64 8
  %10 = load ptr, ptr %9, align 8, !tbaa !56
  %.not.i21 = icmp eq ptr %10, null
  br i1 %.not.i21, label %Vec_IntFree.exit22, label %11

11:                                               ; preds = %Vec_IntFree.exit
  tail call void @free(ptr noundef nonnull %10) #26
  br label %Vec_IntFree.exit22

Vec_IntFree.exit22:                               ; preds = %Vec_IntFree.exit, %11
  tail call void @free(ptr noundef nonnull %8) #26
  %12 = getelementptr inbounds nuw i8, ptr %0, i64 296
  %13 = load ptr, ptr %12, align 8, !tbaa !63
  %14 = getelementptr inbounds nuw i8, ptr %13, i64 8
  %15 = load ptr, ptr %14, align 8, !tbaa !62
  %.not.i23 = icmp eq ptr %15, null
  br i1 %.not.i23, label %Vec_PtrFree.exit, label %16

16:                                               ; preds = %Vec_IntFree.exit22
  tail call void @free(ptr noundef nonnull %15) #26
  br label %Vec_PtrFree.exit

Vec_PtrFree.exit:                                 ; preds = %Vec_IntFree.exit22, %16
  tail call void @free(ptr noundef nonnull %13) #26
  %17 = getelementptr inbounds nuw i8, ptr %0, i64 280
  %18 = load ptr, ptr %17, align 8, !tbaa !80
  %19 = getelementptr inbounds nuw i8, ptr %18, i64 8
  %20 = load ptr, ptr %19, align 8, !tbaa !56
  %.not.i24 = icmp eq ptr %20, null
  br i1 %.not.i24, label %Vec_IntFree.exit25, label %21

21:                                               ; preds = %Vec_PtrFree.exit
  tail call void @free(ptr noundef nonnull %20) #26
  br label %Vec_IntFree.exit25

Vec_IntFree.exit25:                               ; preds = %Vec_PtrFree.exit, %21
  tail call void @free(ptr noundef nonnull %18) #26
  %22 = getelementptr inbounds nuw i8, ptr %0, i64 256
  %23 = load ptr, ptr %22, align 8, !tbaa !49
  %.not = icmp eq ptr %23, null
  br i1 %.not, label %25, label %24

24:                                               ; preds = %Vec_IntFree.exit25
  tail call void @free(ptr noundef nonnull %23) #26
  store ptr null, ptr %22, align 8, !tbaa !49
  br label %25

25:                                               ; preds = %Vec_IntFree.exit25, %24
  %26 = getelementptr inbounds nuw i8, ptr %0, i64 208
  %27 = load ptr, ptr %26, align 8, !tbaa !47
  %.not18 = icmp eq ptr %27, null
  br i1 %.not18, label %29, label %28

28:                                               ; preds = %25
  tail call void @free(ptr noundef nonnull %27) #26
  store ptr null, ptr %26, align 8, !tbaa !47
  br label %29

29:                                               ; preds = %25, %28
  %30 = getelementptr inbounds nuw i8, ptr %0, i64 232
  %31 = load ptr, ptr %30, align 8, !tbaa !48
  %.not19 = icmp eq ptr %31, null
  br i1 %.not19, label %33, label %32

32:                                               ; preds = %29
  tail call void @free(ptr noundef nonnull %31) #26
  br label %33

33:                                               ; preds = %29, %32
  tail call void @free(ptr noundef nonnull %0) #26
  ret void
}